target datalayout = "e-m:e-p270:32:32-p271:32:32-p272:64:64-i64:64-i128:128-f80:128-n8:16:32:64-S128"
target triple = "x86_64-pc-linux-gnu"

%struct.KLVPacket = type { [16 x i8], i64, i64, i64 }
%struct.MXFContext = type { ptr, ptr, i32, i32, ptr, i32, ptr, i32, [26 x %struct.MXFMetadataSetGroup], ptr, ptr, ptr, i32, i64, %struct.KLVPacket, i32, ptr, i32, i64, i32, i32, ptr, i32 }
%struct.MXFMetadataSetGroup = type { ptr, i32 }

@.str.43 = private unnamed_addr constant [27 x i8] c"Primer pack item length %d\00", align 1
@.str.44 = private unnamed_addr constant [26 x i8] c"item_num %d is too large\0A\00", align 1
@.str.45 = private unnamed_addr constant [23 x i8] c"Multiple primer packs\0A\00", align 1

; Function Attrs: nounwind uwtable
define internal i32 @mxf_read_primer_pack(ptr noundef %0, ptr noundef %1, i32 noundef %2, i32 noundef %3, ptr noundef %4, i64 noundef %5) #0 {
  %7 = alloca i32, align 4
  %8 = alloca ptr, align 8
  %9 = alloca ptr, align 8
  %10 = alloca i32, align 4
  %11 = alloca i32, align 4
  %12 = alloca ptr, align 8
  %13 = alloca i64, align 8
  %14 = alloca ptr, align 8
  %15 = alloca i32, align 4
  %16 = alloca i32, align 4
  %17 = alloca i32, align 4
  store ptr %0, ptr %8, align 8, !tbaa !90
  store ptr %1, ptr %9, align 8, !tbaa !138
  store i32 %2, ptr %10, align 4, !tbaa !47
  store i32 %3, ptr %11, align 4, !tbaa !47
  store ptr %4, ptr %12, align 8, !tbaa !13
  store i64 %5, ptr %13, align 8, !tbaa !37
  call void @llvm.lifetime.start.p0(i64 8, ptr %14) #13
  %18 = load ptr, ptr %8, align 8, !tbaa !90
  store ptr %18, ptr %14, align 8, !tbaa !35
  call void @llvm.lifetime.start.p0(i64 4, ptr %15) #13
  %19 = load ptr, ptr %9, align 8, !tbaa !138
  %20 = call i32 @avio_rb32(ptr noundef %19)
  store i32 %20, ptr %15, align 4, !tbaa !47
  call void @llvm.lifetime.start.p0(i64 4, ptr %16) #13
  %21 = load ptr, ptr %9, align 8, !tbaa !138
  %22 = call i32 @avio_rb32(ptr noundef %21)
  store i32 %22, ptr %16, align 4, !tbaa !47
  %23 = load i32, ptr %16, align 4, !tbaa !47
  %24 = icmp ne i32 %23, 18
  br i1 %24, label %25, label %28

25:                                               ; preds = %6
  %26 = load ptr, ptr %9, align 8, !tbaa !138
  %27 = load i32, ptr %16, align 4, !tbaa !47
  call void (ptr, ptr, ...) @avpriv_request_sample(ptr noundef %26, ptr noundef @.str.43, i32 noundef %27)
  store i32 -1163346256, ptr %7, align 4
  store i32 1, ptr %17, align 4
  br label %78

28:                                               ; preds = %6
  %29 = load i32, ptr %15, align 4, !tbaa !47
  %30 = icmp sgt i32 %29, 65536
  br i1 %30, label %34, label %31

31:                                               ; preds = %28
  %32 = load i32, ptr %15, align 4, !tbaa !47
  %33 = icmp slt i32 %32, 0
  br i1 %33, label %34, label %39

34:                                               ; preds = %31, %28
  %35 = load ptr, ptr %14, align 8, !tbaa !35
  %36 = getelementptr inbounds nuw %struct.MXFContext, ptr %35, i32 0, i32 9
  %37 = load ptr, ptr %36, align 8, !tbaa !45
  %38 = load i32, ptr %15, align 4, !tbaa !47
  call void (ptr, i32, ptr, ...) @av_log(ptr noundef %37, i32 noundef 16, ptr noundef @.str.44, i32 noundef %38)
  store i32 -1094995529, ptr %7, align 4
  store i32 1, ptr %17, align 4
  br label %78

39:                                               ; preds = %31
  %40 = load ptr, ptr %14, align 8, !tbaa !35
  %41 = getelementptr inbounds nuw %struct.MXFContext, ptr %40, i32 0, i32 11
  %42 = load ptr, ptr %41, align 8, !tbaa !295
  %43 = icmp ne ptr %42, null
  br i1 %43, label %44, label %48

44:                                               ; preds = %39
  %45 = load ptr, ptr %14, align 8, !tbaa !35
  %46 = getelementptr inbounds nuw %struct.MXFContext, ptr %45, i32 0, i32 9
  %47 = load ptr, ptr %46, align 8, !tbaa !45
  call void (ptr, i32, ptr, ...) @av_log(ptr noundef %47, i32 noundef 40, ptr noundef @.str.45)
  br label %48

48:                                               ; preds = %44, %39
  %49 = load ptr, ptr %14, align 8, !tbaa !35
  %50 = getelementptr inbounds nuw %struct.MXFContext, ptr %49, i32 0, i32 11
  %51 = load ptr, ptr %50, align 8, !tbaa !295
  call void @av_free(ptr noundef %51)
  %52 = load ptr, ptr %14, align 8, !tbaa !35
  %53 = getelementptr inbounds nuw %struct.MXFContext, ptr %52, i32 0, i32 12
  store i32 0, ptr %53, align 8, !tbaa !296
  %54 = load i32, ptr %15, align 4, !tbaa !47
  %55 = sext i32 %54 to i64
  %56 = load i32, ptr %16, align 4, !tbaa !47
  %57 = sext i32 %56 to i64
  %58 = call noalias ptr @av_calloc(i64 noundef %55, i64 noundef %57)
  %59 = load ptr, ptr %14, align 8, !tbaa !35
  %60 = getelementptr inbounds nuw %struct.MXFContext, ptr %59, i32 0, i32 11
  store ptr %58, ptr %60, align 8, !tbaa !295
  %61 = load ptr, ptr %14, align 8, !tbaa !35
  %62 = getelementptr inbounds nuw %struct.MXFContext, ptr %61, i32 0, i32 11
  %63 = load ptr, ptr %62, align 8, !tbaa !295
  %64 = icmp ne ptr %63, null
  br i1 %64, label %66, label %65

65:                                               ; preds = %48
  store i32 -12, ptr %7, align 4
  store i32 1, ptr %17, align 4
  br label %78

66:                                               ; preds = %48
  %67 = load i32, ptr %15, align 4, !tbaa !47
  %68 = load ptr, ptr %14, align 8, !tbaa !35
  %69 = getelementptr inbounds nuw %struct.MXFContext, ptr %68, i32 0, i32 12
  store i32 %67, ptr %69, align 8, !tbaa !296
  %70 = load ptr, ptr %9, align 8, !tbaa !138
  %71 = load ptr, ptr %14, align 8, !tbaa !35
  %72 = getelementptr inbounds nuw %struct.MXFContext, ptr %71, i32 0, i32 11
  %73 = load ptr, ptr %72, align 8, !tbaa !295
  %74 = load i32, ptr %15, align 4, !tbaa !47
  %75 = load i32, ptr %16, align 4, !tbaa !47
  %76 = mul nsw i32 %74, %75
  %77 = call i32 @avio_read(ptr noundef %70, ptr noundef %73, i32 noundef %76)
  store i32 0, ptr %7, align 4
  store i32 1, ptr %17, align 4
  br label %78

78:                                               ; preds = %66, %65, %34, %25
  call void @llvm.lifetime.end.p0(i64 4, ptr %16) #13
  call void @llvm.lifetime.end.p0(i64 4, ptr %15) #13
  call void @llvm.lifetime.end.p0(i64 8, ptr %14) #13
  %79 = load i32, ptr %7, align 4
  ret i32 %79
}