; Function Attrs: nounwind uwtable
define internal range(i32 -1163346256, 1) i32 @mxf_read_primer_pack(ptr noundef captures(none) %0, ptr noundef %1, i32 %2, i32 %3, ptr readnone captures(none) %4, i64 %5) #1 {
  %7 = tail call i32 @avio_rb32(ptr noundef %1) #15
  %8 = tail call i32 @avio_rb32(ptr noundef %1) #15
  %.not = icmp eq i32 %8, 18
  br i1 %.not, label %10, label %9

9:                                                ; preds = %6
  tail call void (ptr, ptr, ...) @avpriv_request_sample(ptr noundef %1, ptr noundef nonnull @.str.43, i32 noundef %8) #15
  br label %28

10:                                               ; preds = %6
  %or.cond = icmp ugt i32 %7, 65536
  br i1 %or.cond, label %11, label %14

11:                                               ; preds = %10
  %12 = getelementptr inbounds nuw i8, ptr %0, i64 472
  %13 = load ptr, ptr %12, align 8, !tbaa !39
  tail call void (ptr, i32, ptr, ...) @av_log(ptr noundef %13, i32 noundef 16, ptr noundef nonnull @.str.44, i32 noundef %7) #15
  br label %28

14:                                               ; preds = %10
  %15 = getelementptr inbounds nuw i8, ptr %0, i64 488
  %16 = load ptr, ptr %15, align 8, !tbaa !316
  %.not27 = icmp eq ptr %16, null
  br i1 %.not27, label %20, label %17

17:                                               ; preds = %14
  %18 = getelementptr inbounds nuw i8, ptr %0, i64 472
  %19 = load ptr, ptr %18, align 8, !tbaa !39
  tail call void (ptr, i32, ptr, ...) @av_log(ptr noundef %19, i32 noundef 40, ptr noundef nonnull @.str.45) #15
  %.pre = load ptr, ptr %15, align 8, !tbaa !316
  br label %20

20:                                               ; preds = %17, %14
  %21 = phi ptr [ %.pre, %17 ], [ null, %14 ]
  tail call void @av_free(ptr noundef %21) #15
  %22 = getelementptr inbounds nuw i8, ptr %0, i64 496
  store i32 0, ptr %22, align 8, !tbaa !315
  %23 = zext nneg i32 %7 to i64
  %24 = tail call noalias ptr @av_calloc(i64 noundef %23, i64 noundef 18) #15
  store ptr %24, ptr %15, align 8, !tbaa !316
  %.not28 = icmp eq ptr %24, null
  br i1 %.not28, label %28, label %25

25:                                               ; preds = %20
  store i32 %7, ptr %22, align 8, !tbaa !315
  %26 = mul nuw nsw i32 %7, 18
  %27 = tail call i32 @avio_read(ptr noundef %1, ptr noundef nonnull %24, i32 noundef %26) #15
  br label %28

28:                                               ; preds = %20, %25, %11, %9
  %.0 = phi i32 [ -1163346256, %9 ], [ -1094995529, %11 ], [ 0, %25 ], [ -12, %20 ]
  ret i32 %.0
}